; Function Attrs: mustprogress nofree norecurse nosync nounwind willreturn memory(read, inaccessiblemem: none) uwtable
define hidden noundef zeroext i1 @_ZNK3smt8cg_table5cg_eqclEPNS_5enodeES3_(ptr nocapture noundef nonnull readnone align 1 dereferenceable(1) %this, ptr nocapture noundef readonly %n1, ptr nocapture noundef readonly %n2) local_unnamed_addr #3 align 2 {
entry:
  %m_suppress_args.i = getelementptr inbounds i8, ptr %n1, i64 44
  %bf.load.i = load i16, ptr %m_suppress_args.i, align 4
  %0 = and i16 %bf.load.i, 8
  %tobool.not.i = icmp eq i16 %0, 0
  br i1 %tobool.not.i, label %cond.false.i, label %_ZNK3smt5enode12get_num_argsEv.exit

cond.false.i:                                     ; preds = %entry
  %1 = load ptr, ptr %n1, align 8
  %m_num_args.i.i = getelementptr inbounds i8, ptr %1, i64 24
  %2 = load i32, ptr %m_num_args.i.i, align 8
  br label %_ZNK3smt5enode12get_num_argsEv.exit

_ZNK3smt5enode12get_num_argsEv.exit:              ; preds = %entry, %cond.false.i
  %cond.i = phi i32 [ %2, %cond.false.i ], [ 0, %entry ]
  %m_suppress_args.i7 = getelementptr inbounds i8, ptr %n2, i64 44
  %bf.load.i8 = load i16, ptr %m_suppress_args.i7, align 4
  %3 = and i16 %bf.load.i8, 8
  %tobool.not.i9 = icmp eq i16 %3, 0
  br i1 %tobool.not.i9, label %cond.false.i11, label %_ZNK3smt5enode12get_num_argsEv.exit13

cond.false.i11:                                   ; preds = %_ZNK3smt5enode12get_num_argsEv.exit
  %4 = load ptr, ptr %n2, align 8
  %m_num_args.i.i12 = getelementptr inbounds i8, ptr %4, i64 24
  %5 = load i32, ptr %m_num_args.i.i12, align 8
  br label %_ZNK3smt5enode12get_num_argsEv.exit13

_ZNK3smt5enode12get_num_argsEv.exit13:            ; preds = %_ZNK3smt5enode12get_num_argsEv.exit, %cond.false.i11
  %cond.i10 = phi i32 [ %5, %cond.false.i11 ], [ 0, %_ZNK3smt5enode12get_num_argsEv.exit ]
  %cmp.not = icmp eq i32 %cond.i, %cond.i10
  br i1 %cmp.not, label %for.cond.preheader, label %return

for.cond.preheader:                               ; preds = %_ZNK3smt5enode12get_num_argsEv.exit13
  %m_args.i = getelementptr inbounds i8, ptr %n1, i64 112
  %cmp318.not = icmp eq i32 %cond.i, 0
  br i1 %cmp318.not, label %return, label %for.body.lr.ph

for.body.lr.ph:                                   ; preds = %for.cond.preheader
  %m_args.i14 = getelementptr inbounds i8, ptr %n2, i64 112
  %wide.trip.count = zext i32 %cond.i to i64
  br label %for.body

for.body:                                         ; preds = %for.body, %for.body.lr.ph
  %indvars.iv = phi i64 [ 0, %for.body.lr.ph ], [ %indvars.iv.next, %for.body ]
  %arrayidx.i = getelementptr inbounds [0 x ptr], ptr %m_args.i, i64 0, i64 %indvars.iv
  %6 = load ptr, ptr %arrayidx.i, align 8
  %m_root.i = getelementptr inbounds i8, ptr %6, i64 8
  %7 = load ptr, ptr %m_root.i, align 8
  %arrayidx.i16 = getelementptr inbounds [0 x ptr], ptr %m_args.i14, i64 0, i64 %indvars.iv
  %8 = load ptr, ptr %arrayidx.i16, align 8
  %m_root.i17 = getelementptr inbounds i8, ptr %8, i64 8
  %9 = load ptr, ptr %m_root.i17, align 8
  %cmp8.not = icmp eq ptr %7, %9
  %indvars.iv.next = add nuw nsw i64 %indvars.iv, 1
  %exitcond.not = icmp ne i64 %indvars.iv.next, %wide.trip.count
  %or.cond.not = select i1 %cmp8.not, i1 %exitcond.not, i1 false
  br i1 %or.cond.not, label %for.body, label %return, !llvm.loop !6

return:                                           ; preds = %for.body, %for.cond.preheader, %_ZNK3smt5enode12get_num_argsEv.exit13
  %retval.0 = phi i1 [ false, %_ZNK3smt5enode12get_num_argsEv.exit13 ], [ true, %for.cond.preheader ], [ %cmp8.not, %for.body ]
  ret i1 %retval.0
}